; Function Attrs: nounwind uwtable
define internal ptr @HH_getitem(ptr noundef readonly captures(none) %0, i64 noundef %1) #0 {
  %3 = getelementptr inbounds nuw i8, ptr %0, i64 24
  %4 = load ptr, ptr %3, align 8, !tbaa !53
  %5 = getelementptr i16, ptr %4, i64 %1
  %6 = load i16, ptr %5, align 2, !tbaa !33
  %7 = zext i16 %6 to i64
  %8 = tail call ptr @PyLong_FromLong(i64 noundef %7) #11
  ret ptr %8
}